target datalayout = "e-m:e-p270:32:32-p271:32:32-p272:64:64-i64:64-i128:128-f80:128-n8:16:32:64-S128"
target triple = "x86_64-pc-linux-gnu"

; Function Attrs: nounwind uwtable
define i32 @H5VM_hyper_eq(i32 noundef %0, ptr noundef %1, ptr noundef %2, ptr noundef %3, ptr noundef %4) #0 {
  %6 = alloca i32, align 4
  %7 = alloca ptr, align 8
  %8 = alloca ptr, align 8
  %9 = alloca ptr, align 8
  %10 = alloca ptr, align 8
  %11 = alloca i64, align 8
  %12 = alloca i64, align 8
  %13 = alloca i32, align 4
  %14 = alloca i32, align 4
  store i32 %0, ptr %6, align 4
  store ptr %1, ptr %7, align 8
  store ptr %2, ptr %8, align 8
  store ptr %3, ptr %9, align 8
  store ptr %4, ptr %10, align 8
  store i64 1, ptr %11, align 8
  store i64 1, ptr %12, align 8
  store i32 1, ptr %14, align 4
  %15 = load i32, ptr %6, align 4
  %16 = icmp eq i32 %15, 0
  br i1 %16, label %17, label %20

17:                                               ; preds = %5
  br label %18

18:                                               ; preds = %17
  store i32 1, ptr %14, align 4
  br label %120

19:                                               ; No predecessors!
  br label %20

20:                                               ; preds = %19, %5
  store i32 0, ptr %13, align 4
  br label %21

21:                                               ; preds = %116, %20
  %22 = load i32, ptr %13, align 4
  %23 = load i32, ptr %6, align 4
  %24 = icmp ult i32 %22, %23
  br i1 %24, label %25, label %119

25:                                               ; preds = %21
  %26 = load ptr, ptr %7, align 8
  %27 = icmp ne ptr %26, null
  br i1 %27, label %28, label %34

28:                                               ; preds = %25
  %29 = load ptr, ptr %7, align 8
  %30 = load i32, ptr %13, align 4
  %31 = zext i32 %30 to i64
  %32 = getelementptr inbounds i64, ptr %29, i64 %31
  %33 = load i64, ptr %32, align 8
  br label %35

34:                                               ; preds = %25
  br label %35

35:                                               ; preds = %34, %28
  %36 = phi i64 [ %33, %28 ], [ 0, %34 ]
  %37 = load ptr, ptr %9, align 8
  %38 = icmp ne ptr %37, null
  br i1 %38, label %39, label %45

39:                                               ; preds = %35
  %40 = load ptr, ptr %9, align 8
  %41 = load i32, ptr %13, align 4
  %42 = zext i32 %41 to i64
  %43 = getelementptr inbounds i64, ptr %40, i64 %42
  %44 = load i64, ptr %43, align 8
  br label %46

45:                                               ; preds = %35
  br label %46

46:                                               ; preds = %45, %39
  %47 = phi i64 [ %44, %39 ], [ 0, %45 ]
  %48 = icmp ne i64 %36, %47
  br i1 %48, label %49, label %52

49:                                               ; preds = %46
  br label %50

50:                                               ; preds = %49
  store i32 0, ptr %14, align 4
  br label %120

51:                                               ; No predecessors!
  br label %52

52:                                               ; preds = %51, %46
  %53 = load ptr, ptr %8, align 8
  %54 = icmp ne ptr %53, null
  br i1 %54, label %55, label %61

55:                                               ; preds = %52
  %56 = load ptr, ptr %8, align 8
  %57 = load i32, ptr %13, align 4
  %58 = zext i32 %57 to i64
  %59 = getelementptr inbounds i64, ptr %56, i64 %58
  %60 = load i64, ptr %59, align 8
  br label %62

61:                                               ; preds = %52
  br label %62

62:                                               ; preds = %61, %55
  %63 = phi i64 [ %60, %55 ], [ 0, %61 ]
  %64 = load ptr, ptr %10, align 8
  %65 = icmp ne ptr %64, null
  br i1 %65, label %66, label %72

66:                                               ; preds = %62
  %67 = load ptr, ptr %10, align 8
  %68 = load i32, ptr %13, align 4
  %69 = zext i32 %68 to i64
  %70 = getelementptr inbounds i64, ptr %67, i64 %69
  %71 = load i64, ptr %70, align 8
  br label %73

72:                                               ; preds = %62
  br label %73

73:                                               ; preds = %72, %66
  %74 = phi i64 [ %71, %66 ], [ 0, %72 ]
  %75 = icmp ne i64 %63, %74
  br i1 %75, label %76, label %79

76:                                               ; preds = %73
  br label %77

77:                                               ; preds = %76
  store i32 0, ptr %14, align 4
  br label %120

78:                                               ; No predecessors!
  br label %79

79:                                               ; preds = %78, %73
  %80 = load ptr, ptr %8, align 8
  %81 = icmp ne ptr %80, null
  br i1 %81, label %82, label %88

82:                                               ; preds = %79
  %83 = load ptr, ptr %8, align 8
  %84 = load i32, ptr %13, align 4
  %85 = zext i32 %84 to i64
  %86 = getelementptr inbounds i64, ptr %83, i64 %85
  %87 = load i64, ptr %86, align 8
  br label %89

88:                                               ; preds = %79
  br label %89

89:                                               ; preds = %88, %82
  %90 = phi i64 [ %87, %82 ], [ 0, %88 ]
  %91 = load i64, ptr %11, align 8
  %92 = mul i64 %91, %90
  store i64 %92, ptr %11, align 8
  %93 = icmp eq i64 0, %92
  br i1 %93, label %94, label %97

94:                                               ; preds = %89
  br label %95

95:                                               ; preds = %94
  store i32 0, ptr %14, align 4
  br label %120

96:                                               ; No predecessors!
  br label %97

97:                                               ; preds = %96, %89
  %98 = load ptr, ptr %10, align 8
  %99 = icmp ne ptr %98, null
  br i1 %99, label %100, label %106

100:                                              ; preds = %97
  %101 = load ptr, ptr %10, align 8
  %102 = load i32, ptr %13, align 4
  %103 = zext i32 %102 to i64
  %104 = getelementptr inbounds i64, ptr %101, i64 %103
  %105 = load i64, ptr %104, align 8
  br label %107

106:                                              ; preds = %97
  br label %107

107:                                              ; preds = %106, %100
  %108 = phi i64 [ %105, %100 ], [ 0, %106 ]
  %109 = load i64, ptr %12, align 8
  %110 = mul i64 %109, %108
  store i64 %110, ptr %12, align 8
  %111 = icmp eq i64 0, %110
  br i1 %111, label %112, label %115

112:                                              ; preds = %107
  br label %113

113:                                              ; preds = %112
  store i32 0, ptr %14, align 4
  br label %120

114:                                              ; No predecessors!
  br label %115

115:                                              ; preds = %114, %107
  br label %116

116:                                              ; preds = %115
  %117 = load i32, ptr %13, align 4
  %118 = add i32 %117, 1
  store i32 %118, ptr %13, align 4
  br label %21

119:                                              ; preds = %21
  br label %120

120:                                              ; preds = %119, %113, %95, %77, %50, %18
  %121 = load i32, ptr %14, align 4
  ret i32 %121
}