; Function Attrs: nofree norecurse nosync nounwind memory(argmem: read) uwtable
define range(i32 0, 2) i32 @H5VM_hyper_eq(i32 noundef %0, ptr noundef readonly %1, ptr noundef readonly %2, ptr noundef readonly %3, ptr noundef readonly %4) local_unnamed_addr #1 {
  %6 = icmp eq i32 %0, 0
  br i1 %6, label %.loopexit, label %.preheader

.preheader:                                       ; preds = %5
  %.not = icmp eq ptr %1, null
  %.not35 = icmp eq ptr %3, null
  %.not37 = icmp eq ptr %2, null
  %.not38 = icmp eq ptr %4, null
  br i1 %.not, label %.preheader.split.us.preheader, label %.preheader.split

.preheader.split.us.preheader:                    ; preds = %.preheader
  %wide.trip.count80 = zext i32 %0 to i64
  br label %.preheader.split.us

.preheader.split.us:                              ; preds = %.preheader.split.us.preheader, %7
  %indvars.iv77 = phi i64 [ 0, %.preheader.split.us.preheader ], [ %indvars.iv.next78, %7 ]
  %.02541.us = phi i64 [ 1, %.preheader.split.us.preheader ], [ %35, %7 ]
  %.02640.us = phi i64 [ 1, %.preheader.split.us.preheader ], [ %27, %7 ]
  br i1 %.not35, label %.thread, label %8

7:                                                ; preds = %33
  %indvars.iv.next78 = add nuw nsw i64 %indvars.iv77, 1
  %exitcond81.not = icmp eq i64 %indvars.iv.next78, %wide.trip.count80
  br i1 %exitcond81.not, label %.loopexit, label %.preheader.split.us

8:                                                ; preds = %.preheader.split.us
  %9 = getelementptr inbounds i64, ptr %3, i64 %indvars.iv77
  %10 = load i64, ptr %9, align 8
  %.not36.us = icmp eq i64 %10, 0
  br i1 %.not36.us, label %.thread, label %.loopexit

.thread:                                          ; preds = %.preheader.split.us, %8
  br i1 %.not37, label %14, label %11

11:                                               ; preds = %.thread
  %12 = getelementptr inbounds i64, ptr %2, i64 %indvars.iv77
  %13 = load i64, ptr %12, align 8
  br label %14

14:                                               ; preds = %11, %.thread
  %15 = phi i64 [ %13, %11 ], [ 0, %.thread ]
  br i1 %.not38, label %19, label %16

16:                                               ; preds = %14
  %17 = getelementptr inbounds i64, ptr %4, i64 %indvars.iv77
  %18 = load i64, ptr %17, align 8
  br label %19

19:                                               ; preds = %16, %14
  %20 = phi i64 [ %18, %16 ], [ 0, %14 ]
  %.not39.us = icmp eq i64 %15, %20
  br i1 %.not39.us, label %21, label %.loopexit

21:                                               ; preds = %19
  br i1 %.not37, label %25, label %22

22:                                               ; preds = %21
  %23 = getelementptr inbounds i64, ptr %2, i64 %indvars.iv77
  %24 = load i64, ptr %23, align 8
  br label %25

25:                                               ; preds = %22, %21
  %26 = phi i64 [ %24, %22 ], [ 0, %21 ]
  %27 = mul i64 %26, %.02640.us
  %28 = icmp eq i64 %27, 0
  br i1 %28, label %.loopexit, label %29

29:                                               ; preds = %25
  br i1 %.not38, label %33, label %30

30:                                               ; preds = %29
  %31 = getelementptr inbounds i64, ptr %4, i64 %indvars.iv77
  %32 = load i64, ptr %31, align 8
  br label %33

33:                                               ; preds = %30, %29
  %34 = phi i64 [ %32, %30 ], [ 0, %29 ]
  %35 = mul i64 %34, %.02541.us
  %36 = icmp eq i64 %35, 0
  br i1 %36, label %.loopexit, label %7

.preheader.split:                                 ; preds = %.preheader
  br i1 %.not35, label %.preheader.split.split.us.preheader, label %.preheader.split.split

.preheader.split.split.us.preheader:              ; preds = %.preheader.split
  %wide.trip.count75 = zext i32 %0 to i64
  br label %.preheader.split.split.us

.preheader.split.split.us:                        ; preds = %.preheader.split.split.us.preheader, %39
  %indvars.iv72 = phi i64 [ 0, %.preheader.split.split.us.preheader ], [ %indvars.iv.next73, %39 ]
  %.02541.us44 = phi i64 [ 1, %.preheader.split.split.us.preheader ], [ %65, %39 ]
  %.02640.us45 = phi i64 [ 1, %.preheader.split.split.us.preheader ], [ %57, %39 ]
  %37 = getelementptr inbounds i64, ptr %1, i64 %indvars.iv72
  %38 = load i64, ptr %37, align 8
  %.not36.us46 = icmp eq i64 %38, 0
  br i1 %.not36.us46, label %40, label %.loopexit

39:                                               ; preds = %63
  %indvars.iv.next73 = add nuw nsw i64 %indvars.iv72, 1
  %exitcond76.not = icmp eq i64 %indvars.iv.next73, %wide.trip.count75
  br i1 %exitcond76.not, label %.loopexit, label %.preheader.split.split.us

40:                                               ; preds = %.preheader.split.split.us
  br i1 %.not37, label %44, label %41

41:                                               ; preds = %40
  %42 = getelementptr inbounds i64, ptr %2, i64 %indvars.iv72
  %43 = load i64, ptr %42, align 8
  br label %44

44:                                               ; preds = %41, %40
  %45 = phi i64 [ %43, %41 ], [ 0, %40 ]
  br i1 %.not38, label %49, label %46

46:                                               ; preds = %44
  %47 = getelementptr inbounds i64, ptr %4, i64 %indvars.iv72
  %48 = load i64, ptr %47, align 8
  br label %49

49:                                               ; preds = %46, %44
  %50 = phi i64 [ %48, %46 ], [ 0, %44 ]
  %.not39.us47 = icmp eq i64 %45, %50
  br i1 %.not39.us47, label %51, label %.loopexit

51:                                               ; preds = %49
  br i1 %.not37, label %55, label %52

52:                                               ; preds = %51
  %53 = getelementptr inbounds i64, ptr %2, i64 %indvars.iv72
  %54 = load i64, ptr %53, align 8
  br label %55

55:                                               ; preds = %52, %51
  %56 = phi i64 [ %54, %52 ], [ 0, %51 ]
  %57 = mul i64 %56, %.02640.us45
  %58 = icmp eq i64 %57, 0
  br i1 %58, label %.loopexit, label %59

59:                                               ; preds = %55
  br i1 %.not38, label %63, label %60

60:                                               ; preds = %59
  %61 = getelementptr inbounds i64, ptr %4, i64 %indvars.iv72
  %62 = load i64, ptr %61, align 8
  br label %63

63:                                               ; preds = %60, %59
  %64 = phi i64 [ %62, %60 ], [ 0, %59 ]
  %65 = mul i64 %64, %.02541.us44
  %66 = icmp eq i64 %65, 0
  br i1 %66, label %.loopexit, label %39

.preheader.split.split:                           ; preds = %.preheader.split
  %brmerge = or i1 %.not37, %.not38
  br i1 %brmerge, label %.loopexit, label %.preheader.split.split.split.split.preheader

.preheader.split.split.split.split.preheader:     ; preds = %.preheader.split.split
  %wide.trip.count = zext i32 %0 to i64
  br label %.preheader.split.split.split.split

67:                                               ; preds = %80
  %indvars.iv.next = add nuw nsw i64 %indvars.iv, 1
  %exitcond.not = icmp eq i64 %indvars.iv.next, %wide.trip.count
  br i1 %exitcond.not, label %.loopexit, label %.preheader.split.split.split.split

.preheader.split.split.split.split:               ; preds = %.preheader.split.split.split.split.preheader, %67
  %indvars.iv = phi i64 [ 0, %.preheader.split.split.split.split.preheader ], [ %indvars.iv.next, %67 ]
  %.02541 = phi i64 [ 1, %.preheader.split.split.split.split.preheader ], [ %81, %67 ]
  %.02640 = phi i64 [ 1, %.preheader.split.split.split.split.preheader ], [ %78, %67 ]
  %68 = getelementptr inbounds i64, ptr %1, i64 %indvars.iv
  %69 = load i64, ptr %68, align 8
  %70 = getelementptr inbounds i64, ptr %3, i64 %indvars.iv
  %71 = load i64, ptr %70, align 8
  %.not36 = icmp eq i64 %69, %71
  br i1 %.not36, label %72, label %.loopexit

72:                                               ; preds = %.preheader.split.split.split.split
  %73 = getelementptr inbounds i64, ptr %2, i64 %indvars.iv
  %74 = load i64, ptr %73, align 8
  %75 = getelementptr inbounds i64, ptr %4, i64 %indvars.iv
  %76 = load i64, ptr %75, align 8
  %.not39 = icmp eq i64 %74, %76
  br i1 %.not39, label %77, label %.loopexit

77:                                               ; preds = %72
  %78 = mul i64 %74, %.02640
  %79 = icmp eq i64 %78, 0
  br i1 %79, label %.loopexit, label %80

80:                                               ; preds = %77
  %81 = mul i64 %74, %.02541
  %82 = icmp eq i64 %81, 0
  br i1 %82, label %.loopexit, label %67

.loopexit:                                        ; preds = %80, %77, %72, %.preheader.split.split.split.split, %67, %39, %.preheader.split.split.us, %49, %55, %63, %33, %25, %19, %8, %7, %.preheader.split.split, %5
  %.0 = phi i32 [ 1, %5 ], [ 0, %.preheader.split.split ], [ 0, %33 ], [ 0, %25 ], [ 0, %19 ], [ 0, %8 ], [ 1, %7 ], [ 0, %63 ], [ 0, %55 ], [ 0, %49 ], [ 0, %.preheader.split.split.us ], [ 1, %39 ], [ 0, %80 ], [ 0, %77 ], [ 0, %72 ], [ 0, %.preheader.split.split.split.split ], [ 1, %67 ]
  ret i32 %.0
}